

Microchip MPLAB XC8 Assembler V2.31 build 20201012212115 
                                                                                               Wed Mar 10 22:29:20 2021

Microchip MPLAB XC8 C Compiler v2.31 (Free license) build 20201012212115 Og1 
     1                           	processor	16F887
     2                           	pagewidth 120
     3                           	opt	flic
     4                           	psect	idataBANK0,global,class=CODE,delta=2,noexec
     5                           	psect	cinit,global,class=CODE,merge=1,delta=2
     6                           	psect	bssBANK0,global,class=BANK0,space=1,delta=1,noexec
     7                           	psect	dataBANK0,global,class=BANK0,space=1,delta=1,noexec
     8                           	psect	cstackCOMMON,global,class=COMMON,space=1,delta=1,noexec
     9                           	psect	cstackBANK0,global,class=BANK0,space=1,delta=1,noexec
    10                           	psect	maintext,global,class=CODE,split=1,delta=2
    11                           	psect	text1,local,class=CODE,merge=1,delta=2
    12                           	psect	text2,local,class=CODE,merge=1,delta=2
    13                           	psect	text3,local,class=CODE,merge=1,delta=2
    14                           	psect	text4,local,class=CODE,merge=1,delta=2
    15                           	psect	text5,local,class=CODE,merge=1,delta=2
    16                           	psect	text6,local,class=CODE,merge=1,delta=2
    17                           	psect	text7,local,class=CODE,merge=1,delta=2
    18                           	psect	text8,local,class=CODE,merge=1,delta=2
    19                           	psect	text9,local,class=CODE,merge=1,delta=2
    20                           	psect	text10,local,class=CODE,merge=1,delta=2
    21                           	psect	text11,local,class=CODE,merge=1,delta=2
    22                           	psect	text12,local,class=CODE,merge=1,delta=2
    23                           	psect	text13,local,class=CODE,merge=1,delta=2,group=1
    24                           	psect	config,global,abs,ovrld,class=CONFIG,space=4,delta=2,noexec
    25                           	dabs	1,0x7E,2
    26  0000                     
    27                           ; Version 2.20
    28                           ; Generated 12/02/2020 GMT
    29                           ; 
    30                           ; Copyright © 2020, Microchip Technology Inc. and its subsidiaries ("Microchip")
    31                           ; All rights reserved.
    32                           ; 
    33                           ; This software is developed by Microchip Technology Inc. and its subsidiaries ("Microch
      +                          ip").
    34                           ; 
    35                           ; Redistribution and use in source and binary forms, with or without modification, are
    36                           ; permitted provided that the following conditions are met:
    37                           ; 
    38                           ;     1. Redistributions of source code must retain the above copyright notice, this lis
      +                          t of
    39                           ;        conditions and the following disclaimer.
    40                           ; 
    41                           ;     2. Redistributions in binary form must reproduce the above copyright notice, this 
      +                          list
    42                           ;        of conditions and the following disclaimer in the documentation and/or other
    43                           ;        materials provided with the distribution.
    44                           ; 
    45                           ;     3. Microchip's name may not be used to endorse or promote products derived from th
      +                          is
    46                           ;        software without specific prior written permission.
    47                           ; 
    48                           ; THIS SOFTWARE IS PROVIDED BY MICROCHIP "AS IS" AND ANY EXPRESS OR IMPLIED WARRANTIES,
    49                           ; INCLUDING, BUT NOT LIMITED TO, THE IMPLIED WARRANTIES OF MERCHANTABILITY AND FITNESS F
      +                          OR
    50                           ; PURPOSE ARE DISCLAIMED.  IN NO EVENT SHALL MICROCHIP BE LIABLE FOR ANY DIRECT, INDIREC
      +                          T,
    51                           ; INCIDENTAL, SPECIAL, EXEMPLARY, OR CONSEQUENTIAL DAMAGES (INCLUDING BUT NOT LIMITED TO
    52                           ; PROCUREMENT OF SUBSTITUTE GOODS OR SERVICES; LOSS OF USE, DATA OR PROFITS; OR BUSINESS
    53                           ; INTERRUPTION) HOWSOEVER CAUSED AND ON ANY THEORY OF LIABILITY, WHETHER IN CONTRACT, ST
      +                          RICT
    54                           ; LIABILITY, OR TORT (INCLUDING NEGLIGENCE OR OTHERWISE) ARISING IN ANY WAY OUT OF THE U
      +                          SE OF
    55                           ; THIS SOFTWARE, EVEN IF ADVISED OF THE POSSIBILITY OF SUCH DAMAGE.
    56                           ; 
    57                           ; 
    58                           ; Code-generator required, PIC16F887 Definitions
    59                           ; 
    60                           ; SFR Addresses
    61  0000                     	;# 
    62  0001                     	;# 
    63  0002                     	;# 
    64  0003                     	;# 
    65  0004                     	;# 
    66  0005                     	;# 
    67  0006                     	;# 
    68  0007                     	;# 
    69  0008                     	;# 
    70  0009                     	;# 
    71  000A                     	;# 
    72  000B                     	;# 
    73  000C                     	;# 
    74  000D                     	;# 
    75  000E                     	;# 
    76  000E                     	;# 
    77  000F                     	;# 
    78  0010                     	;# 
    79  0011                     	;# 
    80  0012                     	;# 
    81  0013                     	;# 
    82  0014                     	;# 
    83  0015                     	;# 
    84  0015                     	;# 
    85  0016                     	;# 
    86  0017                     	;# 
    87  0018                     	;# 
    88  0019                     	;# 
    89  001A                     	;# 
    90  001B                     	;# 
    91  001B                     	;# 
    92  001C                     	;# 
    93  001D                     	;# 
    94  001E                     	;# 
    95  001F                     	;# 
    96  0081                     	;# 
    97  0085                     	;# 
    98  0086                     	;# 
    99  0087                     	;# 
   100  0088                     	;# 
   101  0089                     	;# 
   102  008C                     	;# 
   103  008D                     	;# 
   104  008E                     	;# 
   105  008F                     	;# 
   106  0090                     	;# 
   107  0091                     	;# 
   108  0092                     	;# 
   109  0093                     	;# 
   110  0093                     	;# 
   111  0093                     	;# 
   112  0094                     	;# 
   113  0095                     	;# 
   114  0096                     	;# 
   115  0097                     	;# 
   116  0098                     	;# 
   117  0099                     	;# 
   118  009A                     	;# 
   119  009B                     	;# 
   120  009C                     	;# 
   121  009D                     	;# 
   122  009E                     	;# 
   123  009F                     	;# 
   124  0105                     	;# 
   125  0107                     	;# 
   126  0108                     	;# 
   127  0109                     	;# 
   128  010C                     	;# 
   129  010C                     	;# 
   130  010D                     	;# 
   131  010E                     	;# 
   132  010F                     	;# 
   133  0185                     	;# 
   134  0187                     	;# 
   135  0188                     	;# 
   136  0189                     	;# 
   137  018C                     	;# 
   138  018D                     	;# 
   139  0000                     	;# 
   140  0001                     	;# 
   141  0002                     	;# 
   142  0003                     	;# 
   143  0004                     	;# 
   144  0005                     	;# 
   145  0006                     	;# 
   146  0007                     	;# 
   147  0008                     	;# 
   148  0009                     	;# 
   149  000A                     	;# 
   150  000B                     	;# 
   151  000C                     	;# 
   152  000D                     	;# 
   153  000E                     	;# 
   154  000E                     	;# 
   155  000F                     	;# 
   156  0010                     	;# 
   157  0011                     	;# 
   158  0012                     	;# 
   159  0013                     	;# 
   160  0014                     	;# 
   161  0015                     	;# 
   162  0015                     	;# 
   163  0016                     	;# 
   164  0017                     	;# 
   165  0018                     	;# 
   166  0019                     	;# 
   167  001A                     	;# 
   168  001B                     	;# 
   169  001B                     	;# 
   170  001C                     	;# 
   171  001D                     	;# 
   172  001E                     	;# 
   173  001F                     	;# 
   174  0081                     	;# 
   175  0085                     	;# 
   176  0086                     	;# 
   177  0087                     	;# 
   178  0088                     	;# 
   179  0089                     	;# 
   180  008C                     	;# 
   181  008D                     	;# 
   182  008E                     	;# 
   183  008F                     	;# 
   184  0090                     	;# 
   185  0091                     	;# 
   186  0092                     	;# 
   187  0093                     	;# 
   188  0093                     	;# 
   189  0093                     	;# 
   190  0094                     	;# 
   191  0095                     	;# 
   192  0096                     	;# 
   193  0097                     	;# 
   194  0098                     	;# 
   195  0099                     	;# 
   196  009A                     	;# 
   197  009B                     	;# 
   198  009C                     	;# 
   199  009D                     	;# 
   200  009E                     	;# 
   201  009F                     	;# 
   202  0105                     	;# 
   203  0107                     	;# 
   204  0108                     	;# 
   205  0109                     	;# 
   206  010C                     	;# 
   207  010C                     	;# 
   208  010D                     	;# 
   209  010E                     	;# 
   210  010F                     	;# 
   211  0185                     	;# 
   212  0187                     	;# 
   213  0188                     	;# 
   214  0189                     	;# 
   215  018C                     	;# 
   216  018D                     	;# 
   217  0000                     	;# 
   218  0001                     	;# 
   219  0002                     	;# 
   220  0003                     	;# 
   221  0004                     	;# 
   222  0005                     	;# 
   223  0006                     	;# 
   224  0007                     	;# 
   225  0008                     	;# 
   226  0009                     	;# 
   227  000A                     	;# 
   228  000B                     	;# 
   229  000C                     	;# 
   230  000D                     	;# 
   231  000E                     	;# 
   232  000E                     	;# 
   233  000F                     	;# 
   234  0010                     	;# 
   235  0011                     	;# 
   236  0012                     	;# 
   237  0013                     	;# 
   238  0014                     	;# 
   239  0015                     	;# 
   240  0015                     	;# 
   241  0016                     	;# 
   242  0017                     	;# 
   243  0018                     	;# 
   244  0019                     	;# 
   245  001A                     	;# 
   246  001B                     	;# 
   247  001B                     	;# 
   248  001C                     	;# 
   249  001D                     	;# 
   250  001E                     	;# 
   251  001F                     	;# 
   252  0081                     	;# 
   253  0085                     	;# 
   254  0086                     	;# 
   255  0087                     	;# 
   256  0088                     	;# 
   257  0089                     	;# 
   258  008C                     	;# 
   259  008D                     	;# 
   260  008E                     	;# 
   261  008F                     	;# 
   262  0090                     	;# 
   263  0091                     	;# 
   264  0092                     	;# 
   265  0093                     	;# 
   266  0093                     	;# 
   267  0093                     	;# 
   268  0094                     	;# 
   269  0095                     	;# 
   270  0096                     	;# 
   271  0097                     	;# 
   272  0098                     	;# 
   273  0099                     	;# 
   274  009A                     	;# 
   275  009B                     	;# 
   276  009C                     	;# 
   277  009D                     	;# 
   278  009E                     	;# 
   279  009F                     	;# 
   280  0105                     	;# 
   281  0107                     	;# 
   282  0108                     	;# 
   283  0109                     	;# 
   284  010C                     	;# 
   285  010C                     	;# 
   286  010D                     	;# 
   287  010E                     	;# 
   288  010F                     	;# 
   289  0185                     	;# 
   290  0187                     	;# 
   291  0188                     	;# 
   292  0189                     	;# 
   293  018C                     	;# 
   294  018D                     	;# 
   295  0000                     	;# 
   296  0001                     	;# 
   297  0002                     	;# 
   298  0003                     	;# 
   299  0004                     	;# 
   300  0005                     	;# 
   301  0006                     	;# 
   302  0007                     	;# 
   303  0008                     	;# 
   304  0009                     	;# 
   305  000A                     	;# 
   306  000B                     	;# 
   307  000C                     	;# 
   308  000D                     	;# 
   309  000E                     	;# 
   310  000E                     	;# 
   311  000F                     	;# 
   312  0010                     	;# 
   313  0011                     	;# 
   314  0012                     	;# 
   315  0013                     	;# 
   316  0014                     	;# 
   317  0015                     	;# 
   318  0015                     	;# 
   319  0016                     	;# 
   320  0017                     	;# 
   321  0018                     	;# 
   322  0019                     	;# 
   323  001A                     	;# 
   324  001B                     	;# 
   325  001B                     	;# 
   326  001C                     	;# 
   327  001D                     	;# 
   328  001E                     	;# 
   329  001F                     	;# 
   330  0081                     	;# 
   331  0085                     	;# 
   332  0086                     	;# 
   333  0087                     	;# 
   334  0088                     	;# 
   335  0089                     	;# 
   336  008C                     	;# 
   337  008D                     	;# 
   338  008E                     	;# 
   339  008F                     	;# 
   340  0090                     	;# 
   341  0091                     	;# 
   342  0092                     	;# 
   343  0093                     	;# 
   344  0093                     	;# 
   345  0093                     	;# 
   346  0094                     	;# 
   347  0095                     	;# 
   348  0096                     	;# 
   349  0097                     	;# 
   350  0098                     	;# 
   351  0099                     	;# 
   352  009A                     	;# 
   353  009B                     	;# 
   354  009C                     	;# 
   355  009D                     	;# 
   356  009E                     	;# 
   357  009F                     	;# 
   358  0105                     	;# 
   359  0107                     	;# 
   360  0108                     	;# 
   361  0109                     	;# 
   362  010C                     	;# 
   363  010C                     	;# 
   364  010D                     	;# 
   365  010E                     	;# 
   366  010F                     	;# 
   367  0185                     	;# 
   368  0187                     	;# 
   369  0188                     	;# 
   370  0189                     	;# 
   371  018C                     	;# 
   372  018D                     	;# 
   373                           
   374                           	psect	idataBANK0
   375  05BE                     __pidataBANK0:
   376                           
   377                           ;initializer for _address
   378  05BE  3468               	retlw	104
   379  0019                     _TXREG	set	25
   380  001A                     _RCREG	set	26
   381  000C                     _PIR1bits	set	12
   382  0013                     _SSPBUF	set	19
   383  0014                     _SSPCON	set	20
   384  0007                     _PORTC	set	7
   385  0008                     _PORTD	set	8
   386  0065                     _RCIF	set	101
   387  00C4                     _CREN	set	196
   388  00C7                     _SPEN	set	199
   389  0098                     _TXSTAbits	set	152
   390  0099                     _SPBRG	set	153
   391  009A                     _SPBRGH	set	154
   392  0091                     _SSPCON2bits	set	145
   393  0087                     _TRISCbits	set	135
   394  0091                     _SSPCON2	set	145
   395  0094                     _SSPSTAT	set	148
   396  0093                     _SSPADD	set	147
   397  0087                     _TRISC	set	135
   398  0088                     _TRISD	set	136
   399  04C1                     _TRMT	set	1217
   400  043E                     _TRISC6	set	1086
   401  043F                     _TRISC7	set	1087
   402  04C5                     _TXEN	set	1221
   403  04C6                     _TX9	set	1222
   404  04C4                     _SYNC	set	1220
   405  04C2                     _BRGH	set	1218
   406                           
   407                           	psect	cinit
   408  07F2                     start_initialization:	
   409                           ; #config settings
   410                           
   411  07F2                     __initialization:
   412                           
   413                           ; Initialize objects allocated to BANK0
   414  07F2  120A  118A  25BE  120A  118A  	fcall	__pidataBANK0	;fetch initializer
   415  07F7  00AD               	movwf	__pdataBANK0& (0+127)
   416                           
   417                           ; Clear objects allocated to BANK0
   418  07F8  01A9               	clrf	__pbssBANK0& (0+127)
   419  07F9  01AA               	clrf	(__pbssBANK0+1)& (0+127)
   420  07FA  01AB               	clrf	(__pbssBANK0+2)& (0+127)
   421  07FB  01AC               	clrf	(__pbssBANK0+3)& (0+127)
   422  07FC                     end_of_initialization:	
   423                           ;End of C runtime variable initialization code
   424                           
   425  07FC                     __end_of__initialization:
   426  07FC  0183               	clrf	3
   427  07FD  120A  118A  2EF2   	ljmp	_main	;jump to C main() function
   428                           
   429                           	psect	bssBANK0
   430  0029                     __pbssBANK0:
   431  0029                     _Az:
   432  0029                     	ds	1
   433  002A                     _Ay:
   434  002A                     	ds	1
   435  002B                     _Ax:
   436  002B                     	ds	1
   437  002C                     _sensor:
   438  002C                     	ds	1
   439                           
   440                           	psect	dataBANK0
   441  002D                     __pdataBANK0:
   442  002D                     _address:
   443  002D                     	ds	1
   444                           
   445                           	psect	cstackCOMMON
   446  0070                     __pcstackCOMMON:
   447  0070                     ?_setup:
   448  0070                     ??_setup:	
   449                           ; 1 bytes @ 0x0
   450                           
   451  0070                     ?_UART_Init:	
   452                           ; 1 bytes @ 0x0
   453                           
   454  0070                     ??_UART_Init:	
   455                           ; 1 bytes @ 0x0
   456                           
   457  0070                     ?_I2C_Master_Start:	
   458                           ; 1 bytes @ 0x0
   459                           
   460  0070                     ??_I2C_Master_Start:	
   461                           ; 1 bytes @ 0x0
   462                           
   463  0070                     ?_I2C_Master_Write:	
   464                           ; 1 bytes @ 0x0
   465                           
   466  0070                     ?_I2C_Master_Stop:	
   467                           ; 1 bytes @ 0x0
   468                           
   469  0070                     ??_I2C_Master_Stop:	
   470                           ; 1 bytes @ 0x0
   471                           
   472  0070                     ?_Write_esp32:	
   473                           ; 1 bytes @ 0x0
   474                           
   475  0070                     ?_Read_esp32:	
   476                           ; 1 bytes @ 0x0
   477                           
   478  0070                     ??_Read_esp32:	
   479                           ; 1 bytes @ 0x0
   480                           
   481  0070                     ?_UART_DATA_Ready:	
   482                           ; 1 bytes @ 0x0
   483                           
   484  0070                     ??_UART_DATA_Ready:	
   485                           ; 1 bytes @ 0x0
   486                           
   487  0070                     ?_UART_DATA_Read:	
   488                           ; 1 bytes @ 0x0
   489                           
   490  0070                     ??_UART_DATA_Read:	
   491                           ; 1 bytes @ 0x0
   492                           
   493  0070                     ?_UART_DATA_Write:	
   494                           ; 1 bytes @ 0x0
   495                           
   496  0070                     ??_UART_DATA_Write:	
   497                           ; 1 bytes @ 0x0
   498                           
   499  0070                     ?_main:	
   500                           ; 1 bytes @ 0x0
   501                           
   502  0070                     ?_I2C_Master_Wait:	
   503                           ; 1 bytes @ 0x0
   504                           
   505  0070                     ??_I2C_Master_Wait:	
   506                           ; 1 bytes @ 0x0
   507                           
   508  0070                     ?___lldiv:	
   509                           ; 1 bytes @ 0x0
   510                           
   511  0070                     UART_DATA_Write@data:	
   512                           ; 4 bytes @ 0x0
   513                           
   514  0070                     I2C_Master_Write@data:	
   515                           ; 1 bytes @ 0x0
   516                           
   517  0070                     ___lldiv@divisor:	
   518                           ; 2 bytes @ 0x0
   519                           
   520                           
   521                           ; 4 bytes @ 0x0
   522  0070                     	ds	1
   523  0071                     ??_Write_esp32:
   524                           
   525                           ; 1 bytes @ 0x1
   526  0071                     	ds	1
   527  0072                     ??_I2C_Master_Write:
   528                           
   529                           ; 1 bytes @ 0x2
   530  0072                     	ds	2
   531  0074                     ___lldiv@dividend:
   532                           
   533                           ; 4 bytes @ 0x4
   534  0074                     	ds	4
   535  0078                     ??___lldiv:
   536                           
   537                           ; 1 bytes @ 0x8
   538  0078                     	ds	1
   539  0079                     ___lldiv@quotient:
   540                           
   541                           ; 4 bytes @ 0x9
   542  0079                     	ds	4
   543  007D                     ___lldiv@counter:
   544                           
   545                           ; 1 bytes @ 0xD
   546  007D                     	ds	1
   547                           
   548                           	psect	cstackBANK0
   549  0020                     __pcstackBANK0:
   550  0020                     ?_I2C_Master_Init:
   551  0020                     I2C_Master_Init@c:	
   552                           ; 1 bytes @ 0x0
   553                           
   554                           
   555                           ; 4 bytes @ 0x0
   556  0020                     	ds	4
   557  0024                     ??_I2C_Master_Init:
   558                           
   559                           ; 1 bytes @ 0x4
   560  0024                     	ds	4
   561  0028                     ??_main:
   562                           
   563                           ; 1 bytes @ 0x8
   564  0028                     	ds	1
   565                           
   566                           	psect	maintext
   567  06F2                     __pmaintext:	
   568 ;;
   569 ;;Main: autosize = 0, tempsize = 1, incstack = 0, save=0
   570 ;;
   571 ;; *************** function _main *****************
   572 ;; Defined at:
   573 ;;		line 66 in file "mcu_16f887.c"
   574 ;; Parameters:    Size  Location     Type
   575 ;;		None
   576 ;; Auto vars:     Size  Location     Type
   577 ;;		None
   578 ;; Return value:  Size  Location     Type
   579 ;;                  1    wreg      void 
   580 ;; Registers used:
   581 ;;		wreg, status,2, status,0, pclath, cstack
   582 ;; Tracked objects:
   583 ;;		On entry : B00/0
   584 ;;		On exit  : 0/0
   585 ;;		Unchanged: 0/0
   586 ;; Data sizes:     COMMON   BANK0   BANK1   BANK3   BANK2
   587 ;;      Params:         0       0       0       0       0
   588 ;;      Locals:         0       0       0       0       0
   589 ;;      Temps:          0       1       0       0       0
   590 ;;      Totals:         0       1       0       0       0
   591 ;;Total ram usage:        1 bytes
   592 ;; Hardware stack levels required when called:    2
   593 ;; This function calls:
   594 ;;		_I2C_Master_Init
   595 ;;		_I2C_Master_Start
   596 ;;		_I2C_Master_Stop
   597 ;;		_I2C_Master_Write
   598 ;;		_Read_esp32
   599 ;;		_UART_Init
   600 ;;		_Write_esp32
   601 ;;		_setup
   602 ;; This function is called by:
   603 ;;		Startup code after reset
   604 ;; This function uses a non-reentrant model
   605 ;;
   606                           
   607                           
   608                           ;psect for function _main
   609  06F2                     _main:
   610  06F2                     l977:	
   611                           ;incstack = 0
   612                           ; Regs used in _main: [wreg+status,2+status,0+pclath+cstack]
   613                           
   614                           
   615                           ;mcu_16f887.c: 68:     setup();
   616  06F2  120A  118A  2602  120A  118A  	fcall	_setup
   617                           
   618                           ;mcu_16f887.c: 69:     I2C_Master_Init(100000);
   619  06F7  3000               	movlw	0
   620  06F8  1283               	bcf	3,5	;RP0=0, select bank0
   621  06F9  1303               	bcf	3,6	;RP1=0, select bank0
   622  06FA  00A3               	movwf	I2C_Master_Init@c+3
   623  06FB  3001               	movlw	1
   624  06FC  00A2               	movwf	I2C_Master_Init@c+2
   625  06FD  3086               	movlw	134
   626  06FE  00A1               	movwf	I2C_Master_Init@c+1
   627  06FF  30A0               	movlw	160
   628  0700  00A0               	movwf	I2C_Master_Init@c
   629  0701  120A  118A  2654  120A  118A  	fcall	_I2C_Master_Init
   630                           
   631                           ;mcu_16f887.c: 70:     UART_Init();
   632  0706  120A  118A  2622  120A  118A  	fcall	_UART_Init
   633                           
   634                           ;mcu_16f887.c: 72:  I2C_Master_Start();
   635  070B  120A  118A  25CD  120A  118A  	fcall	_I2C_Master_Start
   636                           
   637                           ;mcu_16f887.c: 73:     I2C_Master_Write((address * 2) + 0);
   638  0710  30D0               	movlw	208
   639  0711  00F0               	movwf	I2C_Master_Write@data
   640  0712  3000               	movlw	0
   641  0713  00F1               	movwf	I2C_Master_Write@data+1
   642  0714  120A  118A  25DF  120A  118A  	fcall	_I2C_Master_Write
   643                           
   644                           ;mcu_16f887.c: 74:  I2C_Master_Write(0x19);
   645  0719  3019               	movlw	25
   646  071A  00F0               	movwf	I2C_Master_Write@data
   647  071B  3000               	movlw	0
   648  071C  00F1               	movwf	I2C_Master_Write@data+1
   649  071D  120A  118A  25DF  120A  118A  	fcall	_I2C_Master_Write
   650                           
   651                           ;mcu_16f887.c: 75:  I2C_Master_Write(0x07);
   652  0722  3007               	movlw	7
   653  0723  00F0               	movwf	I2C_Master_Write@data
   654  0724  3000               	movlw	0
   655  0725  00F1               	movwf	I2C_Master_Write@data+1
   656  0726  120A  118A  25DF  120A  118A  	fcall	_I2C_Master_Write
   657                           
   658                           ;mcu_16f887.c: 76:  I2C_Master_Stop();
   659  072B  120A  118A  25D6  120A  118A  	fcall	_I2C_Master_Stop
   660                           
   661                           ;mcu_16f887.c: 78:     I2C_Master_Start();
   662  0730  120A  118A  25CD  120A  118A  	fcall	_I2C_Master_Start
   663                           
   664                           ;mcu_16f887.c: 79:     I2C_Master_Write((address * 2) + 0);
   665  0735  30D0               	movlw	208
   666  0736  00F0               	movwf	I2C_Master_Write@data
   667  0737  3000               	movlw	0
   668  0738  00F1               	movwf	I2C_Master_Write@data+1
   669  0739  120A  118A  25DF  120A  118A  	fcall	_I2C_Master_Write
   670                           
   671                           ;mcu_16f887.c: 80:     I2C_Master_Write(0x1A);
   672  073E  301A               	movlw	26
   673  073F  00F0               	movwf	I2C_Master_Write@data
   674  0740  3000               	movlw	0
   675  0741  00F1               	movwf	I2C_Master_Write@data+1
   676  0742  120A  118A  25DF  120A  118A  	fcall	_I2C_Master_Write
   677                           
   678                           ;mcu_16f887.c: 81:     I2C_Master_Write(0x00);
   679  0747  3000               	movlw	0
   680  0748  00F0               	movwf	I2C_Master_Write@data
   681  0749  00F1               	movwf	I2C_Master_Write@data+1
   682  074A  120A  118A  25DF  120A  118A  	fcall	_I2C_Master_Write
   683                           
   684                           ;mcu_16f887.c: 82:     I2C_Master_Stop();
   685  074F  120A  118A  25D6  120A  118A  	fcall	_I2C_Master_Stop
   686                           
   687                           ;mcu_16f887.c: 84:     I2C_Master_Start();
   688  0754  120A  118A  25CD  120A  118A  	fcall	_I2C_Master_Start
   689                           
   690                           ;mcu_16f887.c: 85:     I2C_Master_Write((address * 2) + 0);
   691  0759  30D0               	movlw	208
   692  075A  00F0               	movwf	I2C_Master_Write@data
   693  075B  3000               	movlw	0
   694  075C  00F1               	movwf	I2C_Master_Write@data+1
   695  075D  120A  118A  25DF  120A  118A  	fcall	_I2C_Master_Write
   696                           
   697                           ;mcu_16f887.c: 86:     I2C_Master_Write(0x3B);
   698  0762  303B               	movlw	59
   699  0763  00F0               	movwf	I2C_Master_Write@data
   700  0764  3000               	movlw	0
   701  0765  00F1               	movwf	I2C_Master_Write@data+1
   702  0766  120A  118A  25DF  120A  118A  	fcall	_I2C_Master_Write
   703                           
   704                           ;mcu_16f887.c: 87:     I2C_Master_Write(0x00);
   705  076B  3000               	movlw	0
   706  076C  00F0               	movwf	I2C_Master_Write@data
   707  076D  00F1               	movwf	I2C_Master_Write@data+1
   708  076E  120A  118A  25DF  120A  118A  	fcall	_I2C_Master_Write
   709                           
   710                           ;mcu_16f887.c: 88:     I2C_Master_Stop();
   711  0773  120A  118A  25D6  120A  118A  	fcall	_I2C_Master_Stop
   712                           
   713                           ;mcu_16f887.c: 90:     I2C_Master_Start();
   714  0778  120A  118A  25CD  120A  118A  	fcall	_I2C_Master_Start
   715                           
   716                           ;mcu_16f887.c: 91:     I2C_Master_Write(0x1B);
   717  077D  301B               	movlw	27
   718  077E  00F0               	movwf	I2C_Master_Write@data
   719  077F  3000               	movlw	0
   720  0780  00F1               	movwf	I2C_Master_Write@data+1
   721  0781  120A  118A  25DF  120A  118A  	fcall	_I2C_Master_Write
   722                           
   723                           ;mcu_16f887.c: 92:     I2C_Master_Write(0x18);
   724  0786  3018               	movlw	24
   725  0787  00F0               	movwf	I2C_Master_Write@data
   726  0788  3000               	movlw	0
   727  0789  00F1               	movwf	I2C_Master_Write@data+1
   728  078A  120A  118A  25DF  120A  118A  	fcall	_I2C_Master_Write
   729                           
   730                           ;mcu_16f887.c: 93:     I2C_Master_Stop();
   731  078F  120A  118A  25D6  120A  118A  	fcall	_I2C_Master_Stop
   732                           
   733                           ;mcu_16f887.c: 95:     I2C_Master_Start();
   734  0794  120A  118A  25CD  120A  118A  	fcall	_I2C_Master_Start
   735                           
   736                           ;mcu_16f887.c: 96:     I2C_Master_Write((address * 2) + 0);
   737  0799  30D0               	movlw	208
   738  079A  00F0               	movwf	I2C_Master_Write@data
   739  079B  3000               	movlw	0
   740  079C  00F1               	movwf	I2C_Master_Write@data+1
   741  079D  120A  118A  25DF  120A  118A  	fcall	_I2C_Master_Write
   742                           
   743                           ;mcu_16f887.c: 97:     I2C_Master_Write(0x6B);
   744  07A2  306B               	movlw	107
   745  07A3  00F0               	movwf	I2C_Master_Write@data
   746  07A4  3000               	movlw	0
   747  07A5  00F1               	movwf	I2C_Master_Write@data+1
   748  07A6  120A  118A  25DF  120A  118A  	fcall	_I2C_Master_Write
   749                           
   750                           ;mcu_16f887.c: 98:     I2C_Master_Write(0x01);
   751  07AB  3001               	movlw	1
   752  07AC  00F0               	movwf	I2C_Master_Write@data
   753  07AD  3000               	movlw	0
   754  07AE  00F1               	movwf	I2C_Master_Write@data+1
   755  07AF  120A  118A  25DF  120A  118A  	fcall	_I2C_Master_Write
   756                           
   757                           ;mcu_16f887.c: 99:     I2C_Master_Stop();
   758  07B4  120A  118A  25D6  120A  118A  	fcall	_I2C_Master_Stop
   759                           
   760                           ;mcu_16f887.c: 101:     I2C_Master_Start();
   761  07B9  120A  118A  25CD  120A  118A  	fcall	_I2C_Master_Start
   762                           
   763                           ;mcu_16f887.c: 102:     I2C_Master_Write((address * 2) + 0);
   764  07BE  30D0               	movlw	208
   765  07BF  00F0               	movwf	I2C_Master_Write@data
   766  07C0  3000               	movlw	0
   767  07C1  00F1               	movwf	I2C_Master_Write@data+1
   768  07C2  120A  118A  25DF  120A  118A  	fcall	_I2C_Master_Write
   769                           
   770                           ;mcu_16f887.c: 103:     I2C_Master_Write(0x38);
   771  07C7  3038               	movlw	56
   772  07C8  00F0               	movwf	I2C_Master_Write@data
   773  07C9  3000               	movlw	0
   774  07CA  00F1               	movwf	I2C_Master_Write@data+1
   775  07CB  120A  118A  25DF  120A  118A  	fcall	_I2C_Master_Write
   776                           
   777                           ;mcu_16f887.c: 104:     I2C_Master_Write(0x01);
   778  07D0  3001               	movlw	1
   779  07D1  00F0               	movwf	I2C_Master_Write@data
   780  07D2  3000               	movlw	0
   781  07D3  00F1               	movwf	I2C_Master_Write@data+1
   782  07D4  120A  118A  25DF  120A  118A  	fcall	_I2C_Master_Write
   783                           
   784                           ;mcu_16f887.c: 105:     I2C_Master_Stop();
   785  07D9  120A  118A  25D6  120A  118A  	fcall	_I2C_Master_Stop
   786  07DE                     l979:
   787                           
   788                           ;mcu_16f887.c: 114:         sensor = 5;
   789  07DE  3005               	movlw	5
   790  07DF  1283               	bcf	3,5	;RP0=0, select bank0
   791  07E0  1303               	bcf	3,6	;RP1=0, select bank0
   792  07E1  00A8               	movwf	??_main
   793  07E2  0828               	movf	??_main,w
   794  07E3  00AC               	movwf	_sensor
   795  07E4                     l981:
   796                           
   797                           ;mcu_16f887.c: 115:         Write_esp32();
   798  07E4  120A  118A  2610  120A  118A  	fcall	_Write_esp32
   799  07E9                     l983:
   800                           
   801                           ;mcu_16f887.c: 116:         Read_esp32();
   802  07E9  120A  118A  2638  120A  118A  	fcall	_Read_esp32
   803  07EE  2FDE               	goto	l979
   804  07EF  120A  118A  2800   	ljmp	start
   805  07F2                     __end_of_main:
   806                           
   807                           	psect	text1
   808  0602                     __ptext1:	
   809 ;; *************** function _setup *****************
   810 ;; Defined at:
   811 ;;		line 124 in file "mcu_16f887.c"
   812 ;; Parameters:    Size  Location     Type
   813 ;;		None
   814 ;; Auto vars:     Size  Location     Type
   815 ;;		None
   816 ;; Return value:  Size  Location     Type
   817 ;;                  1    wreg      void 
   818 ;; Registers used:
   819 ;;		wreg, status,2
   820 ;; Tracked objects:
   821 ;;		On entry : 0/0
   822 ;;		On exit  : 0/0
   823 ;;		Unchanged: 0/0
   824 ;; Data sizes:     COMMON   BANK0   BANK1   BANK3   BANK2
   825 ;;      Params:         0       0       0       0       0
   826 ;;      Locals:         0       0       0       0       0
   827 ;;      Temps:          0       0       0       0       0
   828 ;;      Totals:         0       0       0       0       0
   829 ;;Total ram usage:        0 bytes
   830 ;; Hardware stack levels used:    1
   831 ;; This function calls:
   832 ;;		Nothing
   833 ;; This function is called by:
   834 ;;		_main
   835 ;; This function uses a non-reentrant model
   836 ;;
   837                           
   838                           
   839                           ;psect for function _setup
   840  0602                     _setup:
   841  0602                     l917:	
   842                           ;incstack = 0
   843                           ; Regs used in _setup: [wreg+status,2]
   844                           
   845                           
   846                           ;mcu_16f887.c: 125:     TRISD = 0b00000000;
   847  0602  1683               	bsf	3,5	;RP0=1, select bank1
   848  0603  1303               	bcf	3,6	;RP1=0, select bank1
   849  0604  0188               	clrf	8	;volatile
   850                           
   851                           ;mcu_16f887.c: 126:     PORTD = 0;
   852  0605  1283               	bcf	3,5	;RP0=0, select bank0
   853  0606  1303               	bcf	3,6	;RP1=0, select bank0
   854  0607  0188               	clrf	8	;volatile
   855  0608                     l919:
   856                           
   857                           ;mcu_16f887.c: 127:     TRISC = 0b11011000;
   858  0608  30D8               	movlw	216
   859  0609  1683               	bsf	3,5	;RP0=1, select bank1
   860  060A  1303               	bcf	3,6	;RP1=0, select bank1
   861  060B  0087               	movwf	7	;volatile
   862  060C                     l921:
   863                           
   864                           ;mcu_16f887.c: 128:     PORTC = 0;
   865  060C  1283               	bcf	3,5	;RP0=0, select bank0
   866  060D  1303               	bcf	3,6	;RP1=0, select bank0
   867  060E  0187               	clrf	7	;volatile
   868  060F                     l55:
   869  060F  0008               	return
   870  0610                     __end_of_setup:
   871                           
   872                           	psect	text2
   873  0610                     __ptext2:	
   874 ;; *************** function _Write_esp32 *****************
   875 ;; Defined at:
   876 ;;		line 142 in file "mcu_16f887.c"
   877 ;; Parameters:    Size  Location     Type
   878 ;;		None
   879 ;; Auto vars:     Size  Location     Type
   880 ;;		None
   881 ;; Return value:  Size  Location     Type
   882 ;;                  1    wreg      void 
   883 ;; Registers used:
   884 ;;		wreg, status,2, status,0, pclath, cstack
   885 ;; Tracked objects:
   886 ;;		On entry : 0/0
   887 ;;		On exit  : 0/0
   888 ;;		Unchanged: 0/0
   889 ;; Data sizes:     COMMON   BANK0   BANK1   BANK3   BANK2
   890 ;;      Params:         0       0       0       0       0
   891 ;;      Locals:         0       0       0       0       0
   892 ;;      Temps:          2       0       0       0       0
   893 ;;      Totals:         2       0       0       0       0
   894 ;;Total ram usage:        2 bytes
   895 ;; Hardware stack levels used:    1
   896 ;; Hardware stack levels required when called:    1
   897 ;; This function calls:
   898 ;;		_UART_DATA_Write
   899 ;; This function is called by:
   900 ;;		_main
   901 ;; This function uses a non-reentrant model
   902 ;;
   903                           
   904                           
   905                           ;psect for function _Write_esp32
   906  0610                     _Write_esp32:
   907  0610                     l967:	
   908                           ;incstack = 0
   909                           ; Regs used in _Write_esp32: [wreg+status,2+status,0+pclath+cstack]
   910                           
   911                           
   912                           ;mcu_16f887.c: 143:     UART_DATA_Write(sensor);
   913  0610  1283               	bcf	3,5	;RP0=0, select bank0
   914  0611  1303               	bcf	3,6	;RP1=0, select bank0
   915  0612  082C               	movf	_sensor,w
   916  0613  120A  118A  25E9  120A  118A  	fcall	_UART_DATA_Write
   917  0618                     l969:
   918                           
   919                           ;mcu_16f887.c: 144:     _delay((unsigned long)((100)*(4000000/4000.0)));
   920  0618  3082               	movlw	130
   921  0619  00F2               	movwf	??_Write_esp32+1
   922  061A  30DD               	movlw	221
   923  061B  00F1               	movwf	??_Write_esp32
   924  061C                     u317:
   925  061C  0BF1               	decfsz	??_Write_esp32,f
   926  061D  2E1C               	goto	u317
   927  061E  0BF2               	decfsz	??_Write_esp32+1,f
   928  061F  2E1C               	goto	u317
   929  0620  2E21               	nop2
   930  0621                     l62:
   931  0621  0008               	return
   932  0622                     __end_of_Write_esp32:
   933                           
   934                           	psect	text3
   935  05E9                     __ptext3:	
   936 ;; *************** function _UART_DATA_Write *****************
   937 ;; Defined at:
   938 ;;		line 38 in file "UART_Library.c"
   939 ;; Parameters:    Size  Location     Type
   940 ;;  data            1    wreg     unsigned char 
   941 ;; Auto vars:     Size  Location     Type
   942 ;;  data            1    0[COMMON] unsigned char 
   943 ;; Return value:  Size  Location     Type
   944 ;;                  1    wreg      void 
   945 ;; Registers used:
   946 ;;		wreg
   947 ;; Tracked objects:
   948 ;;		On entry : 0/0
   949 ;;		On exit  : 0/0
   950 ;;		Unchanged: 0/0
   951 ;; Data sizes:     COMMON   BANK0   BANK1   BANK3   BANK2
   952 ;;      Params:         0       0       0       0       0
   953 ;;      Locals:         1       0       0       0       0
   954 ;;      Temps:          0       0       0       0       0
   955 ;;      Totals:         1       0       0       0       0
   956 ;;Total ram usage:        1 bytes
   957 ;; Hardware stack levels used:    1
   958 ;; This function calls:
   959 ;;		Nothing
   960 ;; This function is called by:
   961 ;;		_Write_esp32
   962 ;; This function uses a non-reentrant model
   963 ;;
   964                           
   965                           
   966                           ;psect for function _UART_DATA_Write
   967  05E9                     _UART_DATA_Write:
   968                           
   969                           ;incstack = 0
   970                           ; Regs used in _UART_DATA_Write: [wreg]
   971                           ;UART_DATA_Write@data stored from wreg
   972  05E9  00F0               	movwf	UART_DATA_Write@data
   973  05EA                     l887:
   974                           
   975                           ;UART_Library.c: 39:     TXREG = data;
   976  05EA  0870               	movf	UART_DATA_Write@data,w
   977  05EB  1283               	bcf	3,5	;RP0=0, select bank0
   978  05EC  1303               	bcf	3,6	;RP1=0, select bank0
   979  05ED  0099               	movwf	25	;volatile
   980  05EE                     l144:	
   981                           ;UART_Library.c: 40:     while (!TXSTAbits.TRMT);
   982                           
   983  05EE  1683               	bsf	3,5	;RP0=1, select bank1
   984  05EF  1303               	bcf	3,6	;RP1=0, select bank1
   985  05F0  1C98               	btfss	24,1	;volatile
   986  05F1  2DF3               	goto	u171
   987  05F2  2DF4               	goto	u170
   988  05F3                     u171:
   989  05F3  2DEE               	goto	l144
   990  05F4                     u170:
   991  05F4                     l147:
   992  05F4  0008               	return
   993  05F5                     __end_of_UART_DATA_Write:
   994                           
   995                           	psect	text4
   996  0622                     __ptext4:	
   997 ;; *************** function _UART_Init *****************
   998 ;; Defined at:
   999 ;;		line 15 in file "UART_Library.c"
  1000 ;; Parameters:    Size  Location     Type
  1001 ;;		None
  1002 ;; Auto vars:     Size  Location     Type
  1003 ;;		None
  1004 ;; Return value:  Size  Location     Type
  1005 ;;                  1    wreg      unsigned char 
  1006 ;; Registers used:
  1007 ;;		wreg, status,2
  1008 ;; Tracked objects:
  1009 ;;		On entry : 0/0
  1010 ;;		On exit  : 0/0
  1011 ;;		Unchanged: 0/0
  1012 ;; Data sizes:     COMMON   BANK0   BANK1   BANK3   BANK2
  1013 ;;      Params:         0       0       0       0       0
  1014 ;;      Locals:         0       0       0       0       0
  1015 ;;      Temps:          0       0       0       0       0
  1016 ;;      Totals:         0       0       0       0       0
  1017 ;;Total ram usage:        0 bytes
  1018 ;; Hardware stack levels used:    1
  1019 ;; This function calls:
  1020 ;;		Nothing
  1021 ;; This function is called by:
  1022 ;;		_main
  1023 ;; This function uses a non-reentrant model
  1024 ;;
  1025                           
  1026                           
  1027                           ;psect for function _UART_Init
  1028  0622                     _UART_Init:
  1029  0622                     l935:	
  1030                           ;incstack = 0
  1031                           ; Regs used in _UART_Init: [wreg+status,2]
  1032                           
  1033                           
  1034                           ;UART_Library.c: 17:         SPBRGH = 0;
  1035  0622  1683               	bsf	3,5	;RP0=1, select bank1
  1036  0623  1303               	bcf	3,6	;RP1=0, select bank1
  1037  0624  019A               	clrf	26	;volatile
  1038  0625                     l937:
  1039                           
  1040                           ;UART_Library.c: 18:         SPBRG = 25;
  1041  0625  3019               	movlw	25
  1042  0626  0099               	movwf	25	;volatile
  1043  0627                     l939:
  1044                           
  1045                           ;UART_Library.c: 19:         BRGH = 1;
  1046  0627  1518               	bsf	24,2	;volatile
  1047  0628                     l941:
  1048                           
  1049                           ;UART_Library.c: 20:         SYNC = 0;
  1050  0628  1218               	bcf	24,4	;volatile
  1051  0629                     l943:
  1052                           
  1053                           ;UART_Library.c: 23:         SPEN = 1;
  1054  0629  1283               	bcf	3,5	;RP0=0, select bank0
  1055  062A  1303               	bcf	3,6	;RP1=0, select bank0
  1056  062B  1798               	bsf	24,7	;volatile
  1057  062C                     l945:
  1058                           
  1059                           ;UART_Library.c: 24:         TX9 = 0;
  1060  062C  1683               	bsf	3,5	;RP0=1, select bank1
  1061  062D  1303               	bcf	3,6	;RP1=0, select bank1
  1062  062E  1318               	bcf	24,6	;volatile
  1063  062F                     l947:
  1064                           
  1065                           ;UART_Library.c: 25:         CREN = 1;
  1066  062F  1283               	bcf	3,5	;RP0=0, select bank0
  1067  0630  1303               	bcf	3,6	;RP1=0, select bank0
  1068  0631  1618               	bsf	24,4	;volatile
  1069  0632                     l949:
  1070                           
  1071                           ;UART_Library.c: 26:         TXEN = 1;
  1072  0632  1683               	bsf	3,5	;RP0=1, select bank1
  1073  0633  1303               	bcf	3,6	;RP1=0, select bank1
  1074  0634  1698               	bsf	24,5	;volatile
  1075  0635                     l951:
  1076                           
  1077                           ;UART_Library.c: 29:         TRISC7 = 1;
  1078  0635  1787               	bsf	7,7	;volatile
  1079  0636                     l953:
  1080                           
  1081                           ;UART_Library.c: 30:         TRISC6 = 0;
  1082  0636  1307               	bcf	7,6	;volatile
  1083  0637                     l135:
  1084  0637  0008               	return
  1085  0638                     __end_of_UART_Init:
  1086                           
  1087                           	psect	text5
  1088  0638                     __ptext5:	
  1089 ;; *************** function _Read_esp32 *****************
  1090 ;; Defined at:
  1091 ;;		line 135 in file "mcu_16f887.c"
  1092 ;; Parameters:    Size  Location     Type
  1093 ;;		None
  1094 ;; Auto vars:     Size  Location     Type
  1095 ;;		None
  1096 ;; Return value:  Size  Location     Type
  1097 ;;                  1    wreg      unsigned char 
  1098 ;; Registers used:
  1099 ;;		wreg, pclath, cstack
  1100 ;; Tracked objects:
  1101 ;;		On entry : 0/0
  1102 ;;		On exit  : 0/0
  1103 ;;		Unchanged: 0/0
  1104 ;; Data sizes:     COMMON   BANK0   BANK1   BANK3   BANK2
  1105 ;;      Params:         0       0       0       0       0
  1106 ;;      Locals:         0       0       0       0       0
  1107 ;;      Temps:          2       0       0       0       0
  1108 ;;      Totals:         2       0       0       0       0
  1109 ;;Total ram usage:        2 bytes
  1110 ;; Hardware stack levels used:    1
  1111 ;; Hardware stack levels required when called:    1
  1112 ;; This function calls:
  1113 ;;		_UART_DATA_Read
  1114 ;;		_UART_DATA_Ready
  1115 ;; This function is called by:
  1116 ;;		_main
  1117 ;; This function uses a non-reentrant model
  1118 ;;
  1119                           
  1120                           
  1121                           ;psect for function _Read_esp32
  1122  0638                     _Read_esp32:
  1123  0638                     l971:	
  1124                           ;incstack = 0
  1125                           ; Regs used in _Read_esp32: [wreg+pclath+cstack]
  1126                           
  1127                           
  1128                           ;mcu_16f887.c: 136:     if(UART_DATA_Ready()){
  1129  0638  120A  118A  25BF  120A  118A  	fcall	_UART_DATA_Ready
  1130  063D  3A00               	xorlw	0
  1131  063E  1903               	skipnz
  1132  063F  2E41               	goto	u281
  1133  0640  2E42               	goto	u280
  1134  0641                     u281:
  1135  0641  2E53               	goto	l59
  1136  0642                     u280:
  1137  0642                     l973:
  1138                           
  1139                           ;mcu_16f887.c: 137:         PORTD = UART_DATA_Read();
  1140  0642  120A  118A  25C5  120A  118A  	fcall	_UART_DATA_Read
  1141  0647  1283               	bcf	3,5	;RP0=0, select bank0
  1142  0648  1303               	bcf	3,6	;RP1=0, select bank0
  1143  0649  0088               	movwf	8	;volatile
  1144  064A                     l975:
  1145                           
  1146                           ;mcu_16f887.c: 138:         _delay((unsigned long)((100)*(4000000/4000.0)));
  1147  064A  3082               	movlw	130
  1148  064B  00F1               	movwf	??_Read_esp32+1
  1149  064C  30DD               	movlw	221
  1150  064D  00F0               	movwf	??_Read_esp32
  1151  064E                     u327:
  1152  064E  0BF0               	decfsz	??_Read_esp32,f
  1153  064F  2E4E               	goto	u327
  1154  0650  0BF1               	decfsz	??_Read_esp32+1,f
  1155  0651  2E4E               	goto	u327
  1156  0652  2E53               	nop2
  1157  0653                     l59:
  1158  0653  0008               	return
  1159  0654                     __end_of_Read_esp32:
  1160                           
  1161                           	psect	text6
  1162  05BF                     __ptext6:	
  1163 ;; *************** function _UART_DATA_Ready *****************
  1164 ;; Defined at:
  1165 ;;		line 43 in file "UART_Library.c"
  1166 ;; Parameters:    Size  Location     Type
  1167 ;;		None
  1168 ;; Auto vars:     Size  Location     Type
  1169 ;;		None
  1170 ;; Return value:  Size  Location     Type
  1171 ;;                  1    wreg      unsigned char 
  1172 ;; Registers used:
  1173 ;;		wreg
  1174 ;; Tracked objects:
  1175 ;;		On entry : 0/0
  1176 ;;		On exit  : 0/0
  1177 ;;		Unchanged: 0/0
  1178 ;; Data sizes:     COMMON   BANK0   BANK1   BANK3   BANK2
  1179 ;;      Params:         0       0       0       0       0
  1180 ;;      Locals:         0       0       0       0       0
  1181 ;;      Temps:          0       0       0       0       0
  1182 ;;      Totals:         0       0       0       0       0
  1183 ;;Total ram usage:        0 bytes
  1184 ;; Hardware stack levels used:    1
  1185 ;; This function calls:
  1186 ;;		Nothing
  1187 ;; This function is called by:
  1188 ;;		_Read_esp32
  1189 ;; This function uses a non-reentrant model
  1190 ;;
  1191                           
  1192                           
  1193                           ;psect for function _UART_DATA_Ready
  1194  05BF                     _UART_DATA_Ready:
  1195  05BF                     l877:	
  1196                           ;incstack = 0
  1197                           ; Regs used in _UART_DATA_Ready: [wreg]
  1198                           
  1199                           
  1200                           ;UART_Library.c: 44:     return RCIF;
  1201  05BF  3000               	movlw	0
  1202  05C0  1283               	bcf	3,5	;RP0=0, select bank0
  1203  05C1  1303               	bcf	3,6	;RP1=0, select bank0
  1204  05C2  1A8C               	btfsc	12,5	;volatile
  1205  05C3  3001               	movlw	1
  1206  05C4                     l150:
  1207  05C4  0008               	return
  1208  05C5                     __end_of_UART_DATA_Ready:
  1209                           
  1210                           	psect	text7
  1211  05C5                     __ptext7:	
  1212 ;; *************** function _UART_DATA_Read *****************
  1213 ;; Defined at:
  1214 ;;		line 33 in file "UART_Library.c"
  1215 ;; Parameters:    Size  Location     Type
  1216 ;;		None
  1217 ;; Auto vars:     Size  Location     Type
  1218 ;;		None
  1219 ;; Return value:  Size  Location     Type
  1220 ;;                  1    wreg      unsigned char 
  1221 ;; Registers used:
  1222 ;;		wreg
  1223 ;; Tracked objects:
  1224 ;;		On entry : 0/0
  1225 ;;		On exit  : 0/0
  1226 ;;		Unchanged: 0/0
  1227 ;; Data sizes:     COMMON   BANK0   BANK1   BANK3   BANK2
  1228 ;;      Params:         0       0       0       0       0
  1229 ;;      Locals:         0       0       0       0       0
  1230 ;;      Temps:          0       0       0       0       0
  1231 ;;      Totals:         0       0       0       0       0
  1232 ;;Total ram usage:        0 bytes
  1233 ;; Hardware stack levels used:    1
  1234 ;; This function calls:
  1235 ;;		Nothing
  1236 ;; This function is called by:
  1237 ;;		_Read_esp32
  1238 ;; This function uses a non-reentrant model
  1239 ;;
  1240                           
  1241                           
  1242                           ;psect for function _UART_DATA_Read
  1243  05C5                     _UART_DATA_Read:
  1244  05C5                     l881:	
  1245                           ;incstack = 0
  1246                           ; Regs used in _UART_DATA_Read: [wreg]
  1247                           
  1248  05C5                     l138:	
  1249                           ;UART_Library.c: 34:     while (!PIR1bits.RCIF);
  1250                           
  1251  05C5  1283               	bcf	3,5	;RP0=0, select bank0
  1252  05C6  1303               	bcf	3,6	;RP1=0, select bank0
  1253  05C7  1E8C               	btfss	12,5	;volatile
  1254  05C8  2DCA               	goto	u161
  1255  05C9  2DCB               	goto	u160
  1256  05CA                     u161:
  1257  05CA  2DC5               	goto	l138
  1258  05CB                     u160:
  1259  05CB                     l883:
  1260                           
  1261                           ;UART_Library.c: 35:     return RCREG;
  1262  05CB  081A               	movf	26,w	;volatile
  1263  05CC                     l141:
  1264  05CC  0008               	return
  1265  05CD                     __end_of_UART_DATA_Read:
  1266                           
  1267                           	psect	text8
  1268  05DF                     __ptext8:	
  1269 ;; *************** function _I2C_Master_Write *****************
  1270 ;; Defined at:
  1271 ;;		line 43 in file "I2C_Library.c"
  1272 ;; Parameters:    Size  Location     Type
  1273 ;;  data            2    0[COMMON] unsigned int 
  1274 ;; Auto vars:     Size  Location     Type
  1275 ;;		None
  1276 ;; Return value:  Size  Location     Type
  1277 ;;                  1    wreg      void 
  1278 ;; Registers used:
  1279 ;;		wreg, status,2, status,0, pclath, cstack
  1280 ;; Tracked objects:
  1281 ;;		On entry : 0/0
  1282 ;;		On exit  : 0/0
  1283 ;;		Unchanged: 0/0
  1284 ;; Data sizes:     COMMON   BANK0   BANK1   BANK3   BANK2
  1285 ;;      Params:         2       0       0       0       0
  1286 ;;      Locals:         0       0       0       0       0
  1287 ;;      Temps:          0       0       0       0       0
  1288 ;;      Totals:         2       0       0       0       0
  1289 ;;Total ram usage:        2 bytes
  1290 ;; Hardware stack levels used:    1
  1291 ;; Hardware stack levels required when called:    1
  1292 ;; This function calls:
  1293 ;;		_I2C_Master_Wait
  1294 ;; This function is called by:
  1295 ;;		_main
  1296 ;;		_Read_sensor
  1297 ;; This function uses a non-reentrant model
  1298 ;;
  1299                           
  1300                           
  1301                           ;psect for function _I2C_Master_Write
  1302  05DF                     _I2C_Master_Write:
  1303  05DF                     l959:	
  1304                           ;incstack = 0
  1305                           ; Regs used in _I2C_Master_Write: [wreg+status,2+status,0+pclath+cstack]
  1306                           
  1307                           
  1308                           ;I2C_Library.c: 44:     I2C_Master_Wait();
  1309  05DF  120A  118A  25F5  120A  118A  	fcall	_I2C_Master_Wait
  1310  05E4                     l961:
  1311                           
  1312                           ;I2C_Library.c: 45:     SSPBUF = data;
  1313  05E4  0870               	movf	I2C_Master_Write@data,w
  1314  05E5  1283               	bcf	3,5	;RP0=0, select bank0
  1315  05E6  1303               	bcf	3,6	;RP1=0, select bank0
  1316  05E7  0093               	movwf	19	;volatile
  1317  05E8                     l97:
  1318  05E8  0008               	return
  1319  05E9                     __end_of_I2C_Master_Write:
  1320                           
  1321                           	psect	text9
  1322  05D6                     __ptext9:	
  1323 ;; *************** function _I2C_Master_Stop *****************
  1324 ;; Defined at:
  1325 ;;		line 38 in file "I2C_Library.c"
  1326 ;; Parameters:    Size  Location     Type
  1327 ;;		None
  1328 ;; Auto vars:     Size  Location     Type
  1329 ;;		None
  1330 ;; Return value:  Size  Location     Type
  1331 ;;                  1    wreg      void 
  1332 ;; Registers used:
  1333 ;;		wreg, status,2, status,0, pclath, cstack
  1334 ;; Tracked objects:
  1335 ;;		On entry : 0/0
  1336 ;;		On exit  : 0/0
  1337 ;;		Unchanged: 0/0
  1338 ;; Data sizes:     COMMON   BANK0   BANK1   BANK3   BANK2
  1339 ;;      Params:         0       0       0       0       0
  1340 ;;      Locals:         0       0       0       0       0
  1341 ;;      Temps:          0       0       0       0       0
  1342 ;;      Totals:         0       0       0       0       0
  1343 ;;Total ram usage:        0 bytes
  1344 ;; Hardware stack levels used:    1
  1345 ;; Hardware stack levels required when called:    1
  1346 ;; This function calls:
  1347 ;;		_I2C_Master_Wait
  1348 ;; This function is called by:
  1349 ;;		_main
  1350 ;;		_Read_sensor
  1351 ;; This function uses a non-reentrant model
  1352 ;;
  1353                           
  1354                           
  1355                           ;psect for function _I2C_Master_Stop
  1356  05D6                     _I2C_Master_Stop:
  1357  05D6                     l963:	
  1358                           ;incstack = 0
  1359                           ; Regs used in _I2C_Master_Stop: [wreg+status,2+status,0+pclath+cstack]
  1360                           
  1361                           
  1362                           ;I2C_Library.c: 39:     I2C_Master_Wait();
  1363  05D6  120A  118A  25F5  120A  118A  	fcall	_I2C_Master_Wait
  1364  05DB                     l965:
  1365                           
  1366                           ;I2C_Library.c: 40:     SSPCON2bits.PEN = 1;
  1367  05DB  1683               	bsf	3,5	;RP0=1, select bank1
  1368  05DC  1303               	bcf	3,6	;RP1=0, select bank1
  1369  05DD  1511               	bsf	17,2	;volatile
  1370  05DE                     l94:
  1371  05DE  0008               	return
  1372  05DF                     __end_of_I2C_Master_Stop:
  1373                           
  1374                           	psect	text10
  1375  05CD                     __ptext10:	
  1376 ;; *************** function _I2C_Master_Start *****************
  1377 ;; Defined at:
  1378 ;;		line 33 in file "I2C_Library.c"
  1379 ;; Parameters:    Size  Location     Type
  1380 ;;		None
  1381 ;; Auto vars:     Size  Location     Type
  1382 ;;		None
  1383 ;; Return value:  Size  Location     Type
  1384 ;;                  1    wreg      void 
  1385 ;; Registers used:
  1386 ;;		wreg, status,2, status,0, pclath, cstack
  1387 ;; Tracked objects:
  1388 ;;		On entry : 0/0
  1389 ;;		On exit  : 0/0
  1390 ;;		Unchanged: 0/0
  1391 ;; Data sizes:     COMMON   BANK0   BANK1   BANK3   BANK2
  1392 ;;      Params:         0       0       0       0       0
  1393 ;;      Locals:         0       0       0       0       0
  1394 ;;      Temps:          0       0       0       0       0
  1395 ;;      Totals:         0       0       0       0       0
  1396 ;;Total ram usage:        0 bytes
  1397 ;; Hardware stack levels used:    1
  1398 ;; Hardware stack levels required when called:    1
  1399 ;; This function calls:
  1400 ;;		_I2C_Master_Wait
  1401 ;; This function is called by:
  1402 ;;		_main
  1403 ;;		_Read_sensor
  1404 ;; This function uses a non-reentrant model
  1405 ;;
  1406                           
  1407                           
  1408                           ;psect for function _I2C_Master_Start
  1409  05CD                     _I2C_Master_Start:
  1410  05CD                     l955:	
  1411                           ;incstack = 0
  1412                           ; Regs used in _I2C_Master_Start: [wreg+status,2+status,0+pclath+cstack]
  1413                           
  1414                           
  1415                           ;I2C_Library.c: 34:     I2C_Master_Wait();
  1416  05CD  120A  118A  25F5  120A  118A  	fcall	_I2C_Master_Wait
  1417  05D2                     l957:
  1418                           
  1419                           ;I2C_Library.c: 35:     SSPCON2bits.SEN = 1;
  1420  05D2  1683               	bsf	3,5	;RP0=1, select bank1
  1421  05D3  1303               	bcf	3,6	;RP1=0, select bank1
  1422  05D4  1411               	bsf	17,0	;volatile
  1423  05D5                     l91:
  1424  05D5  0008               	return
  1425  05D6                     __end_of_I2C_Master_Start:
  1426                           
  1427                           	psect	text11
  1428  05F5                     __ptext11:	
  1429 ;; *************** function _I2C_Master_Wait *****************
  1430 ;; Defined at:
  1431 ;;		line 28 in file "I2C_Library.c"
  1432 ;; Parameters:    Size  Location     Type
  1433 ;;		None
  1434 ;; Auto vars:     Size  Location     Type
  1435 ;;		None
  1436 ;; Return value:  Size  Location     Type
  1437 ;;                  1    wreg      void 
  1438 ;; Registers used:
  1439 ;;		wreg, status,2
  1440 ;; Tracked objects:
  1441 ;;		On entry : 0/0
  1442 ;;		On exit  : 0/0
  1443 ;;		Unchanged: 0/0
  1444 ;; Data sizes:     COMMON   BANK0   BANK1   BANK3   BANK2
  1445 ;;      Params:         0       0       0       0       0
  1446 ;;      Locals:         0       0       0       0       0
  1447 ;;      Temps:          0       0       0       0       0
  1448 ;;      Totals:         0       0       0       0       0
  1449 ;;Total ram usage:        0 bytes
  1450 ;; Hardware stack levels used:    1
  1451 ;; This function calls:
  1452 ;;		Nothing
  1453 ;; This function is called by:
  1454 ;;		_I2C_Master_Start
  1455 ;;		_I2C_Master_Stop
  1456 ;;		_I2C_Master_Write
  1457 ;;		_I2C_Master_Read
  1458 ;; This function uses a non-reentrant model
  1459 ;;
  1460                           
  1461                           
  1462                           ;psect for function _I2C_Master_Wait
  1463  05F5                     _I2C_Master_Wait:
  1464  05F5                     l889:	
  1465                           ;incstack = 0
  1466                           ; Regs used in _I2C_Master_Wait: [wreg+status,2]
  1467                           
  1468  05F5                     l85:	
  1469                           ;I2C_Library.c: 30:     while((SSPSTAT & 0b00000100) || (SSPCON2 & 0b00011111)){};
  1470                           
  1471  05F5  1683               	bsf	3,5	;RP0=1, select bank1
  1472  05F6  1303               	bcf	3,6	;RP1=0, select bank1
  1473  05F7  1914               	btfsc	20,2	;volatile
  1474  05F8  2DFA               	goto	u181
  1475  05F9  2DFB               	goto	u180
  1476  05FA                     u181:
  1477  05FA  2DF5               	goto	l85
  1478  05FB                     u180:
  1479  05FB                     l891:
  1480  05FB  0811               	movf	17,w	;volatile
  1481  05FC  391F               	andlw	31
  1482  05FD  1D03               	btfss	3,2
  1483  05FE  2E00               	goto	u191
  1484  05FF  2E01               	goto	u190
  1485  0600                     u191:
  1486  0600  2DF5               	goto	l85
  1487  0601                     u190:
  1488  0601                     l88:
  1489  0601  0008               	return
  1490  0602                     __end_of_I2C_Master_Wait:
  1491                           
  1492                           	psect	text12
  1493  0654                     __ptext12:	
  1494 ;; *************** function _I2C_Master_Init *****************
  1495 ;; Defined at:
  1496 ;;		line 16 in file "I2C_Library.c"
  1497 ;; Parameters:    Size  Location     Type
  1498 ;;  c               4    0[BANK0 ] const unsigned long 
  1499 ;; Auto vars:     Size  Location     Type
  1500 ;;		None
  1501 ;; Return value:  Size  Location     Type
  1502 ;;                  1    wreg      void 
  1503 ;; Registers used:
  1504 ;;		wreg, status,2, status,0, pclath, cstack
  1505 ;; Tracked objects:
  1506 ;;		On entry : 0/0
  1507 ;;		On exit  : 0/0
  1508 ;;		Unchanged: 0/0
  1509 ;; Data sizes:     COMMON   BANK0   BANK1   BANK3   BANK2
  1510 ;;      Params:         0       4       0       0       0
  1511 ;;      Locals:         0       0       0       0       0
  1512 ;;      Temps:          0       4       0       0       0
  1513 ;;      Totals:         0       8       0       0       0
  1514 ;;Total ram usage:        8 bytes
  1515 ;; Hardware stack levels used:    1
  1516 ;; Hardware stack levels required when called:    1
  1517 ;; This function calls:
  1518 ;;		___lldiv
  1519 ;; This function is called by:
  1520 ;;		_main
  1521 ;; This function uses a non-reentrant model
  1522 ;;
  1523                           
  1524                           
  1525                           ;psect for function _I2C_Master_Init
  1526  0654                     _I2C_Master_Init:
  1527  0654                     l923:	
  1528                           ;incstack = 0
  1529                           ; Regs used in _I2C_Master_Init: [wreg+status,2+status,0+pclath+cstack]
  1530                           
  1531                           
  1532                           ;I2C_Library.c: 17:     SSPADD = (8000000/(4*c))-1;
  1533  0654  1283               	bcf	3,5	;RP0=0, select bank0
  1534  0655  1303               	bcf	3,6	;RP1=0, select bank0
  1535  0656  0820               	movf	I2C_Master_Init@c,w
  1536  0657  00A4               	movwf	??_I2C_Master_Init
  1537  0658  0821               	movf	I2C_Master_Init@c+1,w
  1538  0659  00A5               	movwf	??_I2C_Master_Init+1
  1539  065A  0822               	movf	I2C_Master_Init@c+2,w
  1540  065B  00A6               	movwf	??_I2C_Master_Init+2
  1541  065C  0823               	movf	I2C_Master_Init@c+3,w
  1542  065D  00A7               	movwf	??_I2C_Master_Init+3
  1543  065E  3002               	movlw	2
  1544  065F                     u275:
  1545  065F  1003               	clrc
  1546  0660  0DA4               	rlf	??_I2C_Master_Init,f
  1547  0661  0DA5               	rlf	??_I2C_Master_Init+1,f
  1548  0662  0DA6               	rlf	??_I2C_Master_Init+2,f
  1549  0663  0DA7               	rlf	??_I2C_Master_Init+3,f
  1550  0664                     u270:
  1551  0664  3EFF               	addlw	-1
  1552  0665  1D03               	skipz
  1553  0666  2E5F               	goto	u275
  1554  0667  0827               	movf	??_I2C_Master_Init+3,w
  1555  0668  00F3               	movwf	___lldiv@divisor+3
  1556  0669  0826               	movf	??_I2C_Master_Init+2,w
  1557  066A  00F2               	movwf	___lldiv@divisor+2
  1558  066B  0825               	movf	??_I2C_Master_Init+1,w
  1559  066C  00F1               	movwf	___lldiv@divisor+1
  1560  066D  0824               	movf	??_I2C_Master_Init,w
  1561  066E  00F0               	movwf	___lldiv@divisor
  1562  066F  3000               	movlw	0
  1563  0670  00F7               	movwf	___lldiv@dividend+3
  1564  0671  307A               	movlw	122
  1565  0672  00F6               	movwf	___lldiv@dividend+2
  1566  0673  3012               	movlw	18
  1567  0674  00F5               	movwf	___lldiv@dividend+1
  1568  0675  3000               	movlw	0
  1569  0676  00F4               	movwf	___lldiv@dividend
  1570  0677  120A  118A  268C  120A  118A  	fcall	___lldiv
  1571  067C  0870               	movf	?___lldiv,w
  1572  067D  3EFF               	addlw	255
  1573  067E  1683               	bsf	3,5	;RP0=1, select bank1
  1574  067F  1303               	bcf	3,6	;RP1=0, select bank1
  1575  0680  0093               	movwf	19	;volatile
  1576  0681                     l925:
  1577                           
  1578                           ;I2C_Library.c: 18:     SSPSTAT = 0b00000000;
  1579  0681  0194               	clrf	20	;volatile
  1580  0682                     l927:
  1581                           
  1582                           ;I2C_Library.c: 19:     SSPCON = 0b00101000;
  1583  0682  3028               	movlw	40
  1584  0683  1283               	bcf	3,5	;RP0=0, select bank0
  1585  0684  1303               	bcf	3,6	;RP1=0, select bank0
  1586  0685  0094               	movwf	20	;volatile
  1587  0686                     l929:
  1588                           
  1589                           ;I2C_Library.c: 21:     SSPCON2 = 0b00000000;
  1590  0686  1683               	bsf	3,5	;RP0=1, select bank1
  1591  0687  1303               	bcf	3,6	;RP1=0, select bank1
  1592  0688  0191               	clrf	17	;volatile
  1593  0689                     l931:
  1594                           
  1595                           ;I2C_Library.c: 24:     TRISCbits.TRISC3 = 1;
  1596  0689  1587               	bsf	7,3	;volatile
  1597  068A                     l933:
  1598                           
  1599                           ;I2C_Library.c: 25:     TRISCbits.TRISC4 = 1;
  1600  068A  1607               	bsf	7,4	;volatile
  1601  068B                     l82:
  1602  068B  0008               	return
  1603  068C                     __end_of_I2C_Master_Init:
  1604                           
  1605                           	psect	text13
  1606  068C                     __ptext13:	
  1607 ;; *************** function ___lldiv *****************
  1608 ;; Defined at:
  1609 ;;		line 5 in file "C:\Program Files\Microchip\xc8\v2.31\pic\sources\c90\common\__lldiv.c"
  1610 ;; Parameters:    Size  Location     Type
  1611 ;;  divisor         4    0[COMMON] unsigned long 
  1612 ;;  dividend        4    4[COMMON] unsigned long 
  1613 ;; Auto vars:     Size  Location     Type
  1614 ;;  quotient        4    9[COMMON] unsigned long 
  1615 ;;  counter         1   13[COMMON] unsigned char 
  1616 ;; Return value:  Size  Location     Type
  1617 ;;                  4    0[COMMON] unsigned long 
  1618 ;; Registers used:
  1619 ;;		wreg, status,2, status,0
  1620 ;; Tracked objects:
  1621 ;;		On entry : 0/0
  1622 ;;		On exit  : 0/0
  1623 ;;		Unchanged: 0/0
  1624 ;; Data sizes:     COMMON   BANK0   BANK1   BANK3   BANK2
  1625 ;;      Params:         8       0       0       0       0
  1626 ;;      Locals:         5       0       0       0       0
  1627 ;;      Temps:          1       0       0       0       0
  1628 ;;      Totals:        14       0       0       0       0
  1629 ;;Total ram usage:       14 bytes
  1630 ;; Hardware stack levels used:    1
  1631 ;; This function calls:
  1632 ;;		Nothing
  1633 ;; This function is called by:
  1634 ;;		_I2C_Master_Init
  1635 ;; This function uses a non-reentrant model
  1636 ;;
  1637                           
  1638                           
  1639                           ;psect for function ___lldiv
  1640  068C                     ___lldiv:
  1641  068C                     l893:	
  1642                           ;incstack = 0
  1643                           ; Regs used in ___lldiv: [wreg+status,2+status,0]
  1644                           
  1645  068C  3000               	movlw	0
  1646  068D  00FC               	movwf	___lldiv@quotient+3
  1647  068E  3000               	movlw	0
  1648  068F  00FB               	movwf	___lldiv@quotient+2
  1649  0690  3000               	movlw	0
  1650  0691  00FA               	movwf	___lldiv@quotient+1
  1651  0692  3000               	movlw	0
  1652  0693  00F9               	movwf	___lldiv@quotient
  1653  0694  0873               	movf	___lldiv@divisor+3,w
  1654  0695  0472               	iorwf	___lldiv@divisor+2,w
  1655  0696  0471               	iorwf	___lldiv@divisor+1,w
  1656  0697  0470               	iorwf	___lldiv@divisor,w
  1657  0698  1903               	skipnz
  1658  0699  2E9B               	goto	u201
  1659  069A  2E9C               	goto	u200
  1660  069B                     u201:
  1661  069B  2EE9               	goto	l913
  1662  069C                     u200:
  1663  069C                     l895:
  1664  069C  01FD               	clrf	___lldiv@counter
  1665  069D  0AFD               	incf	___lldiv@counter,f
  1666  069E  2EAC               	goto	l899
  1667  069F                     l897:
  1668  069F  3001               	movlw	1
  1669  06A0  00F8               	movwf	??___lldiv
  1670  06A1                     u215:
  1671  06A1  1003               	clrc
  1672  06A2  0DF0               	rlf	___lldiv@divisor,f
  1673  06A3  0DF1               	rlf	___lldiv@divisor+1,f
  1674  06A4  0DF2               	rlf	___lldiv@divisor+2,f
  1675  06A5  0DF3               	rlf	___lldiv@divisor+3,f
  1676  06A6  0BF8               	decfsz	??___lldiv,f
  1677  06A7  2EA1               	goto	u215
  1678  06A8  3001               	movlw	1
  1679  06A9  00F8               	movwf	??___lldiv
  1680  06AA  0878               	movf	??___lldiv,w
  1681  06AB  07FD               	addwf	___lldiv@counter,f
  1682  06AC                     l899:
  1683  06AC  1FF3               	btfss	___lldiv@divisor+3,7
  1684  06AD  2EAF               	goto	u221
  1685  06AE  2EB0               	goto	u220
  1686  06AF                     u221:
  1687  06AF  2E9F               	goto	l897
  1688  06B0                     u220:
  1689  06B0                     l901:
  1690  06B0  3001               	movlw	1
  1691  06B1  00F8               	movwf	??___lldiv
  1692  06B2                     u235:
  1693  06B2  1003               	clrc
  1694  06B3  0DF9               	rlf	___lldiv@quotient,f
  1695  06B4  0DFA               	rlf	___lldiv@quotient+1,f
  1696  06B5  0DFB               	rlf	___lldiv@quotient+2,f
  1697  06B6  0DFC               	rlf	___lldiv@quotient+3,f
  1698  06B7  0BF8               	decfsz	??___lldiv,f
  1699  06B8  2EB2               	goto	u235
  1700  06B9                     l903:
  1701  06B9  0873               	movf	___lldiv@divisor+3,w
  1702  06BA  0277               	subwf	___lldiv@dividend+3,w
  1703  06BB  1D03               	skipz
  1704  06BC  2EC7               	goto	u245
  1705  06BD  0872               	movf	___lldiv@divisor+2,w
  1706  06BE  0276               	subwf	___lldiv@dividend+2,w
  1707  06BF  1D03               	skipz
  1708  06C0  2EC7               	goto	u245
  1709  06C1  0871               	movf	___lldiv@divisor+1,w
  1710  06C2  0275               	subwf	___lldiv@dividend+1,w
  1711  06C3  1D03               	skipz
  1712  06C4  2EC7               	goto	u245
  1713  06C5  0870               	movf	___lldiv@divisor,w
  1714  06C6  0274               	subwf	___lldiv@dividend,w
  1715  06C7                     u245:
  1716  06C7  1C03               	skipc
  1717  06C8  2ECA               	goto	u241
  1718  06C9  2ECB               	goto	u240
  1719  06CA                     u241:
  1720  06CA  2EDA               	goto	l909
  1721  06CB                     u240:
  1722  06CB                     l905:
  1723  06CB  0870               	movf	___lldiv@divisor,w
  1724  06CC  02F4               	subwf	___lldiv@dividend,f
  1725  06CD  0871               	movf	___lldiv@divisor+1,w
  1726  06CE  1C03               	skipc
  1727  06CF  0F71               	incfsz	___lldiv@divisor+1,w
  1728  06D0  02F5               	subwf	___lldiv@dividend+1,f
  1729  06D1  0872               	movf	___lldiv@divisor+2,w
  1730  06D2  1C03               	skipc
  1731  06D3  0F72               	incfsz	___lldiv@divisor+2,w
  1732  06D4  02F6               	subwf	___lldiv@dividend+2,f
  1733  06D5  0873               	movf	___lldiv@divisor+3,w
  1734  06D6  1C03               	skipc
  1735  06D7  0F73               	incfsz	___lldiv@divisor+3,w
  1736  06D8  02F7               	subwf	___lldiv@dividend+3,f
  1737  06D9                     l907:
  1738  06D9  1479               	bsf	___lldiv@quotient,0
  1739  06DA                     l909:
  1740  06DA  3001               	movlw	1
  1741  06DB                     u255:
  1742  06DB  1003               	clrc
  1743  06DC  0CF3               	rrf	___lldiv@divisor+3,f
  1744  06DD  0CF2               	rrf	___lldiv@divisor+2,f
  1745  06DE  0CF1               	rrf	___lldiv@divisor+1,f
  1746  06DF  0CF0               	rrf	___lldiv@divisor,f
  1747  06E0  3EFF               	addlw	-1
  1748  06E1  1D03               	skipz
  1749  06E2  2EDB               	goto	u255
  1750  06E3                     l911:
  1751  06E3  3001               	movlw	1
  1752  06E4  02FD               	subwf	___lldiv@counter,f
  1753  06E5  1D03               	btfss	3,2
  1754  06E6  2EE8               	goto	u261
  1755  06E7  2EE9               	goto	u260
  1756  06E8                     u261:
  1757  06E8  2EB0               	goto	l901
  1758  06E9                     u260:
  1759  06E9                     l913:
  1760  06E9  087C               	movf	___lldiv@quotient+3,w
  1761  06EA  00F3               	movwf	?___lldiv+3
  1762  06EB  087B               	movf	___lldiv@quotient+2,w
  1763  06EC  00F2               	movwf	?___lldiv+2
  1764  06ED  087A               	movf	___lldiv@quotient+1,w
  1765  06EE  00F1               	movwf	?___lldiv+1
  1766  06EF  0879               	movf	___lldiv@quotient,w
  1767  06F0  00F0               	movwf	?___lldiv
  1768  06F1                     l275:
  1769  06F1  0008               	return
  1770  06F2                     __end_of___lldiv:
  1771  007E                     btemp	set	126	;btemp
  1772  007E                     wtemp0	set	126
  1773                           
  1774                           	psect	config
  1775                           
  1776                           ;Config register CONFIG1 @ 0x2007
  1777                           ;	Oscillator Selection bits
  1778                           ;	FOSC = INTRC_CLKOUT, INTOSC oscillator: CLKOUT function on RA6/OSC2/CLKOUT pin, I/O fu
      +                          nction on RA7/OSC1/CLKIN
  1779                           ;	Watchdog Timer Enable bit
  1780                           ;	WDTE = OFF, WDT disabled and can be enabled by SWDTEN bit of the WDTCON register
  1781                           ;	Power-up Timer Enable bit
  1782                           ;	PWRTE = OFF, PWRT disabled
  1783                           ;	RE3/MCLR pin function select bit
  1784                           ;	MCLRE = OFF, RE3/MCLR pin function is digital input, MCLR internally tied to VDD
  1785                           ;	Code Protection bit
  1786                           ;	CP = OFF, Program memory code protection is disabled
  1787                           ;	Data Code Protection bit
  1788                           ;	CPD = OFF, Data memory code protection is disabled
  1789                           ;	Brown Out Reset Selection bits
  1790                           ;	BOREN = OFF, BOR disabled
  1791                           ;	Internal External Switchover bit
  1792                           ;	IESO = OFF, Internal/External Switchover mode is disabled
  1793                           ;	Fail-Safe Clock Monitor Enabled bit
  1794                           ;	FCMEN = OFF, Fail-Safe Clock Monitor is disabled
  1795                           ;	Low Voltage Programming Enable bit
  1796                           ;	LVP = OFF, RB3 pin has digital I/O, HV on MCLR must be used for programming
  1797                           ;	In-Circuit Debugger Mode bit
  1798                           ;	DEBUG = 0x1, unprogrammed default
  1799  2007                     	org	8199
  1800  2007  20D5               	dw	8405
  1801                           
  1802                           ;Config register CONFIG2 @ 0x2008
  1803                           ;	Brown-out Reset Selection bit
  1804                           ;	BOR4V = BOR40V, Brown-out Reset set to 4.0V
  1805                           ;	Flash Program Memory Self Write Enable bits
  1806                           ;	WRT = OFF, Write protection off
  1807  2008                     	org	8200
  1808  2008  3FFF               	dw	16383

Data Sizes:
    Strings     0
    Constant    0
    Data        1
    BSS         4
    Persistent  0
    Stack       0

Auto Spaces:
    Space          Size  Autos    Used
    COMMON           14     14      14
    BANK0            80      9      14
    BANK1            80      0       0
    BANK3            96      0       0
    BANK2            96      0       0

Pointer List with Targets:

    None.

Critical Paths under _main in COMMON

    _Write_esp32->_UART_DATA_Write
    _I2C_Master_Init->___lldiv

Critical Paths under _main in BANK0

    _main->_I2C_Master_Init

Critical Paths under _main in BANK1

    None.

Critical Paths under _main in BANK3

    None.

Critical Paths under _main in BANK2

    None.

Call Graph Tables:

 ---------------------------------------------------------------------------------
 (Depth) Function   	        Calls       Base Space   Used Autos Params    Refs
 ---------------------------------------------------------------------------------
 (0) _main                                                 1     1      0    1976
                                              8 BANK0      1     1      0
                    _I2C_Master_Init
                   _I2C_Master_Start
                    _I2C_Master_Stop
                   _I2C_Master_Write
                         _Read_esp32
                          _UART_Init
                        _Write_esp32
                              _setup
 ---------------------------------------------------------------------------------
 (1) _setup                                                0     0      0       0
 ---------------------------------------------------------------------------------
 (1) _Write_esp32                                          2     2      0      22
                                              1 COMMON     2     2      0
                    _UART_DATA_Write
 ---------------------------------------------------------------------------------
 (2) _UART_DATA_Write                                      1     1      0      22
                                              0 COMMON     1     1      0
 ---------------------------------------------------------------------------------
 (1) _UART_Init                                            0     0      0       0
 ---------------------------------------------------------------------------------
 (1) _Read_esp32                                           2     2      0       0
                                              0 COMMON     2     2      0
                     _UART_DATA_Read
                    _UART_DATA_Ready
 ---------------------------------------------------------------------------------
 (2) _UART_DATA_Ready                                      0     0      0       0
 ---------------------------------------------------------------------------------
 (2) _UART_DATA_Read                                       0     0      0       0
 ---------------------------------------------------------------------------------
 (1) _I2C_Master_Write                                     2     0      2    1542
                                              0 COMMON     2     0      2
                    _I2C_Master_Wait
 ---------------------------------------------------------------------------------
 (1) _I2C_Master_Stop                                      0     0      0       0
                    _I2C_Master_Wait
 ---------------------------------------------------------------------------------
 (1) _I2C_Master_Start                                     0     0      0       0
                    _I2C_Master_Wait
 ---------------------------------------------------------------------------------
 (2) _I2C_Master_Wait                                      0     0      0       0
 ---------------------------------------------------------------------------------
 (1) _I2C_Master_Init                                      8     4      4     412
                                              0 BANK0      8     4      4
                            ___lldiv
 ---------------------------------------------------------------------------------
 (2) ___lldiv                                             14     6      8     314
                                              0 COMMON    14     6      8
 ---------------------------------------------------------------------------------
 Estimated maximum stack depth 2
 ---------------------------------------------------------------------------------

 Call Graph Graphs:

 _main (ROOT)
   _I2C_Master_Init
     ___lldiv
   _I2C_Master_Start
     _I2C_Master_Wait
   _I2C_Master_Stop
     _I2C_Master_Wait
   _I2C_Master_Write
     _I2C_Master_Wait
   _Read_esp32
     _UART_DATA_Read
     _UART_DATA_Ready
   _UART_Init
   _Write_esp32
     _UART_DATA_Write
   _setup

 Address spaces:
Name               Size   Autos  Total    Cost      Usage
BANK3               60      0       0       9        0.0%
BITBANK3            60      0       0       8        0.0%
SFR3                 0      0       0       4        0.0%
BITSFR3              0      0       0       4        0.0%
BANK2               60      0       0      11        0.0%
BITBANK2            60      0       0      10        0.0%
SFR2                 0      0       0       5        0.0%
BITSFR2              0      0       0       5        0.0%
BANK1               50      0       0       7        0.0%
BITBANK1            50      0       0       6        0.0%
SFR1                 0      0       0       2        0.0%
BITSFR1              0      0       0       2        0.0%
BANK0               50      9       E       5       17.5%
BITBANK0            50      0       0       4        0.0%
SFR0                 0      0       0       1        0.0%
BITSFR0              0      0       0       1        0.0%
COMMON               E      E       E       1      100.0%
BITCOMMON            E      0       0       0        0.0%
CODE                 0      0       0       0        0.0%
DATA                 0      0      1C      12        0.0%
ABS                  0      0      1C       3        0.0%
NULL                 0      0       0       0        0.0%
STACK                0      0       0       2        0.0%
EEDATA             100      0       0       0        0.0%


Microchip Technology PIC Macro Assembler V2.31 build 20201012212115 
Symbol Table                                                                                   Wed Mar 10 22:29:20 2021

                       l62 0621                         l55 060F                         l82 068B  
                       l91 05D5                         l59 0653                         l85 05F5  
                       l94 05DE                         l88 0601                         l97 05E8  
                       _Ax 002B                         _Ay 002A                         _Az 0029  
                      l141 05CC                        l150 05C4                        l135 0637  
                      l144 05EE                        l138 05C5                        l147 05F4  
                      l275 06F1                        l901 06B0                        l911 06E3  
                      l903 06B9                        l905 06CB                        l913 06E9  
                      l921 060C                        l907 06D9                        l931 0689  
                      l923 0654                        l909 06DA                        l933 068A  
                      l925 0681                        l941 0628                        l917 0602  
                      l927 0682                        l951 0635                        l943 0629  
                      l935 0622                        l919 0608                        l929 0686  
                      l961 05E4                        l881 05C5                        l953 0636  
                      l945 062C                        l937 0625                        l891 05FB  
                      l955 05CD                        l963 05D6                        l883 05CB  
                      l971 0638                        l947 062F                        l939 0627  
                      l893 068C                        l957 05D2                        l965 05DB  
                      l877 05BF                        l973 0642                        l949 0632  
                      l981 07E4                        l895 069C                        l959 05DF  
                      l975 064A                        l887 05EA                        l967 0610  
                      l983 07E9                        l897 069F                        l889 05F5  
                      l969 0618                        l977 06F2                        l899 06AC  
                      l979 07DE                        u200 069C                        u201 069B  
                      u220 06B0                        u221 06AF                        u215 06A1  
                      u240 06CB                        u160 05CB                        u241 06CA  
                      u161 05CA                        u170 05F4                        u235 06B2  
                      u171 05F3                        u260 06E9                        u180 05FB  
                      u261 06E8                        u245 06C7                        u181 05FA  
                      u317 061C                        u270 0664                        u190 0601  
                      u255 06DB                        u191 0600                        u327 064E  
                      u280 0642                        u281 0641                        u275 065F  
                      _TX9 04C6       __size_of_Write_esp32 0012    __size_of_UART_DATA_Read 0008  
                     _BRGH 04C2                       _CREN 00C4                       _RCIF 0065  
                     _SPEN 00C7                       _TRMT 04C1                       _TXEN 04C5  
                     _SYNC 04C4                       _main 06F2                       btemp 007E  
                     start 0000           ?_I2C_Master_Init 0020           ?_I2C_Master_Wait 0070  
         ?_I2C_Master_Stop 0070                      ?_main 0070            __end_of___lldiv 06F2  
 __size_of_UART_DATA_Ready 0006                      _RCREG 001A   __size_of_UART_DATA_Write 000C  
                    _SPBRG 0099                      _PORTC 0007                      _PORTD 0008  
                    _TRISC 0087                      _TRISD 0088                      _TXREG 0019  
       __size_of_UART_Init 0016                      _setup 0602                      status 0003  
                    wtemp0 007E            __initialization 07F2               __end_of_main 07F2  
               _Read_esp32 0638                     ??_main 0028          ?_I2C_Master_Start 0070  
        ?_I2C_Master_Write 0070         ??_I2C_Master_Start 0070         ??_I2C_Master_Write 0072  
                   ?_setup 0070                     _SPBRGH 009A                     _SSPADD 0093  
                   _TRISC6 043E                     _TRISC7 043F                     _SSPCON 0014  
                   _SSPBUF 0013          __end_of_UART_Init 0638                  ??___lldiv 0078  
                   _sensor 002C          ??_UART_DATA_Ready 0070             _UART_DATA_Read 05C5  
        ??_UART_DATA_Write 0070    __end_of__initialization 07FC             __pcstackCOMMON 0070  
             __pidataBANK0 05BE                ?_Read_esp32 0070              __end_of_setup 0610  
   __end_of_UART_DATA_Read 05CD                    ??_setup 0070                 __pbssBANK0 0029  
               __pmaintext 06F2              ??_Write_esp32 0071            ?_UART_DATA_Read 0070  
                  _SSPCON2 0091                    _SSPSTAT 0094        __size_of_Read_esp32 001C  
                  ___lldiv 068C                    _address 002D                    __ptext1 0602  
                  __ptext2 0610                    __ptext3 05E9                    __ptext4 0622  
                  __ptext5 0638                    __ptext6 05BF                    __ptext7 05C5  
                  __ptext8 05DF                    __ptext9 05D6   __size_of_I2C_Master_Init 0038  
 __size_of_I2C_Master_Wait 000D   __size_of_I2C_Master_Stop 0009        __end_of_Write_esp32 0622  
     end_of_initialization 07FC  __size_of_I2C_Master_Start 0009  __size_of_I2C_Master_Write 000A  
          ___lldiv@divisor 0070            ___lldiv@counter 007D           I2C_Master_Init@c 0020  
                _UART_Init 0622            _UART_DATA_Ready 05BF            _UART_DATA_Write 05E9  
                _TRISCbits 0087                  _TXSTAbits 0098               ??_Read_esp32 0070  
               ?_UART_Init 0070                _Write_esp32 0610        start_initialization 07F2  
        ??_I2C_Master_Init 0024          ??_I2C_Master_Wait 0070         __end_of_Read_esp32 0654  
        ??_I2C_Master_Stop 0070    __end_of_UART_DATA_Ready 05C5    __end_of_UART_DATA_Write 05F5  
              __pdataBANK0 002D           ??_UART_DATA_Read 0070                  ___latbits 0002  
            __pcstackBANK0 0020           _I2C_Master_Start 05CD           _I2C_Master_Write 05DF  
                 ?___lldiv 0070                ??_UART_Init 0070       I2C_Master_Write@data 0070  
           __size_of_setup 000E                   _PIR1bits 000C           ?_UART_DATA_Ready 0070  
         ?_UART_DATA_Write 0070           __size_of___lldiv 0066               ?_Write_esp32 0070  
          _I2C_Master_Init 0654            _I2C_Master_Wait 05F5            _I2C_Master_Stop 05D6  
                 __ptext10 05CD                   __ptext11 05F5                   __ptext12 0654  
                 __ptext13 068C              __size_of_main 0100        UART_DATA_Write@data 0070  
 __end_of_I2C_Master_Start 05D6   __end_of_I2C_Master_Write 05E9           ___lldiv@dividend 0074  
  __end_of_I2C_Master_Init 068C    __end_of_I2C_Master_Wait 0602    __end_of_I2C_Master_Stop 05DF  
         ___lldiv@quotient 0079                _SSPCON2bits 0091  
